target datalayout = "e-m:e-p270:32:32-p271:32:32-p272:64:64-i64:64-i128:128-f80:128-n8:16:32:64-S128"
target triple = "x86_64-unknown-linux-gnu"

%struct.q_obj_query_named_block_nodes_arg = type { i8, i8 }

@.str.212 = private unnamed_addr constant [5 x i8] c"flat\00", align 1

; Function Attrs: nounwind sspstrong uwtable
define dso_local zeroext i1 @visit_type_q_obj_query_named_block_nodes_arg_members(ptr noundef %v, ptr noundef %obj, ptr noundef %errp) #0 {
entry:
  %retval = alloca i1, align 1
  %v.addr = alloca ptr, align 8
  %obj.addr = alloca ptr, align 8
  %errp.addr = alloca ptr, align 8
  store ptr %v, ptr %v.addr, align 8
  store ptr %obj, ptr %obj.addr, align 8
  store ptr %errp, ptr %errp.addr, align 8
  %0 = load ptr, ptr %v.addr, align 8
  %1 = load ptr, ptr %obj.addr, align 8
  %has_flat = getelementptr inbounds %struct.q_obj_query_named_block_nodes_arg, ptr %1, i32 0, i32 0
  %call = call zeroext i1 @visit_optional(ptr noundef %0, ptr noundef @.str.212, ptr noundef %has_flat)
  br i1 %call, label %if.then, label %if.end3

if.then:                                          ; preds = %entry
  %2 = load ptr, ptr %v.addr, align 8
  %3 = load ptr, ptr %obj.addr, align 8
  %flat = getelementptr inbounds %struct.q_obj_query_named_block_nodes_arg, ptr %3, i32 0, i32 1
  %4 = load ptr, ptr %errp.addr, align 8
  %call1 = call zeroext i1 @visit_type_bool(ptr noundef %2, ptr noundef @.str.212, ptr noundef %flat, ptr noundef %4)
  br i1 %call1, label %if.end, label %if.then2

if.then2:                                         ; preds = %if.then
  store i1 false, ptr %retval, align 1
  br label %return

if.end:                                           ; preds = %if.then
  br label %if.end3

if.end3:                                          ; preds = %if.end, %entry
  store i1 true, ptr %retval, align 1
  br label %return

return:                                           ; preds = %if.end3, %if.then2
  %5 = load i1, ptr %retval, align 1
  ret i1 %5
}