; Function Attrs: nounwind sspstrong uwtable
define dso_local noundef zeroext i1 @visit_type_q_obj_query_named_block_nodes_arg_members(ptr noundef %v, ptr noundef %obj, ptr noundef %errp) local_unnamed_addr #0 {
entry:
  %call = tail call zeroext i1 @visit_optional(ptr noundef %v, ptr noundef nonnull @.str.212, ptr noundef %obj) #5
  br i1 %call, label %if.then, label %if.end3

if.then:                                          ; preds = %entry
  %flat = getelementptr inbounds nuw i8, ptr %obj, i64 1
  %call1 = tail call zeroext i1 @visit_type_bool(ptr noundef %v, ptr noundef nonnull @.str.212, ptr noundef nonnull %flat, ptr noundef %errp) #5
  br i1 %call1, label %if.end3, label %return

if.end3:                                          ; preds = %if.then, %entry
  br label %return

return:                                           ; preds = %if.then, %if.end3
  %retval.0 = phi i1 [ true, %if.end3 ], [ false, %if.then ]
  ret i1 %retval.0
}